target datalayout = "e-m:e-p270:32:32-p271:32:32-p272:64:64-i64:64-i128:128-f80:128-n8:16:32:64-S128"
target triple = "x86_64-pc-linux-gnu"

; Function Attrs: nounwind sspstrong uwtable
define internal i64 @local__parse_msf_(ptr noundef %0, i32 noundef %1) #0 {
  %3 = alloca i64, align 8
  %4 = alloca ptr, align 8
  %5 = alloca i32, align 4
  %6 = alloca i64, align 8
  %7 = alloca i64, align 8
  %8 = alloca i8, align 1
  %9 = alloca i32, align 4
  %10 = alloca i64, align 8
  %11 = alloca i64, align 8
  store ptr %0, ptr %4, align 8, !tbaa !19
  store i32 %1, ptr %5, align 4, !tbaa !4
  call void @llvm.lifetime.start.p0(i64 8, ptr %6) #8
  call void @llvm.lifetime.start.p0(i64 8, ptr %7) #8
  call void @llvm.lifetime.start.p0(i64 1, ptr %8) #8
  %12 = load i32, ptr %5, align 4, !tbaa !4
  %13 = icmp eq i32 %12, 0
  br i1 %13, label %14, label %15

14:                                               ; preds = %2
  store i64 -1, ptr %3, align 8
  store i32 1, ptr %9, align 4
  br label %214

15:                                               ; preds = %2
  %16 = load ptr, ptr %4, align 8, !tbaa !19
  %17 = getelementptr inbounds nuw i8, ptr %16, i32 1
  store ptr %17, ptr %4, align 8, !tbaa !19
  %18 = load i8, ptr %16, align 1, !tbaa !25
  store i8 %18, ptr %8, align 1, !tbaa !25
  %19 = load i8, ptr %8, align 1, !tbaa !25
  %20 = sext i8 %19 to i32
  %21 = icmp sge i32 %20, 48
  br i1 %21, label %22, label %31

22:                                               ; preds = %15
  %23 = load i8, ptr %8, align 1, !tbaa !25
  %24 = sext i8 %23 to i32
  %25 = icmp sle i32 %24, 57
  br i1 %25, label %26, label %31

26:                                               ; preds = %22
  %27 = load i8, ptr %8, align 1, !tbaa !25
  %28 = sext i8 %27 to i32
  %29 = sub nsw i32 %28, 48
  %30 = sext i32 %29 to i64
  store i64 %30, ptr %7, align 8, !tbaa !15
  br label %32

31:                                               ; preds = %22, %15
  store i64 -1, ptr %3, align 8
  store i32 1, ptr %9, align 4
  br label %214

32:                                               ; preds = %26
  br label %33

33:                                               ; preds = %61, %32
  %34 = load ptr, ptr %4, align 8, !tbaa !19
  %35 = getelementptr inbounds nuw i8, ptr %34, i32 1
  store ptr %35, ptr %4, align 8, !tbaa !19
  %36 = load i8, ptr %34, align 1, !tbaa !25
  store i8 %36, ptr %8, align 1, !tbaa !25
  %37 = sext i8 %36 to i32
  %38 = icmp ne i32 58, %37
  br i1 %38, label %39, label %62

39:                                               ; preds = %33
  %40 = load i8, ptr %8, align 1, !tbaa !25
  %41 = sext i8 %40 to i32
  %42 = icmp sge i32 %41, 48
  br i1 %42, label %43, label %60

43:                                               ; preds = %39
  %44 = load i8, ptr %8, align 1, !tbaa !25
  %45 = sext i8 %44 to i32
  %46 = icmp sle i32 %45, 57
  br i1 %46, label %47, label %60

47:                                               ; preds = %43
  %48 = load i64, ptr %7, align 8, !tbaa !15
  %49 = icmp sge i64 %48, 922337203685477580
  br i1 %49, label %50, label %51

50:                                               ; preds = %47
  store i64 -1, ptr %3, align 8
  store i32 1, ptr %9, align 4
  br label %214

51:                                               ; preds = %47
  %52 = load i64, ptr %7, align 8, !tbaa !15
  %53 = mul nsw i64 %52, 10
  %54 = load i8, ptr %8, align 1, !tbaa !25
  %55 = sext i8 %54 to i32
  %56 = sub nsw i32 %55, 48
  %57 = sext i32 %56 to i64
  %58 = add nsw i64 %53, %57
  store i64 %58, ptr %7, align 8, !tbaa !15
  br label %59

59:                                               ; preds = %51
  br label %61

60:                                               ; preds = %43, %39
  store i64 -1, ptr %3, align 8
  store i32 1, ptr %9, align 4
  br label %214

61:                                               ; preds = %59
  br label %33, !llvm.loop !44

62:                                               ; preds = %33
  %63 = load i64, ptr %7, align 8, !tbaa !15
  %64 = load i32, ptr %5, align 4, !tbaa !4
  %65 = mul i32 60, %64
  %66 = zext i32 %65 to i64
  %67 = sdiv i64 9223372036854775807, %66
  %68 = icmp sge i64 %63, %67
  br i1 %68, label %69, label %70

69:                                               ; preds = %62
  store i64 -1, ptr %3, align 8
  store i32 1, ptr %9, align 4
  br label %214

70:                                               ; preds = %62
  %71 = load i64, ptr %7, align 8, !tbaa !15
  %72 = mul nsw i64 %71, 60
  %73 = load i32, ptr %5, align 4, !tbaa !4
  %74 = zext i32 %73 to i64
  %75 = mul nsw i64 %72, %74
  store i64 %75, ptr %6, align 8, !tbaa !15
  %76 = load ptr, ptr %4, align 8, !tbaa !19
  %77 = getelementptr inbounds nuw i8, ptr %76, i32 1
  store ptr %77, ptr %4, align 8, !tbaa !19
  %78 = load i8, ptr %76, align 1, !tbaa !25
  store i8 %78, ptr %8, align 1, !tbaa !25
  %79 = load i8, ptr %8, align 1, !tbaa !25
  %80 = sext i8 %79 to i32
  %81 = icmp sge i32 %80, 48
  br i1 %81, label %82, label %91

82:                                               ; preds = %70
  %83 = load i8, ptr %8, align 1, !tbaa !25
  %84 = sext i8 %83 to i32
  %85 = icmp sle i32 %84, 57
  br i1 %85, label %86, label %91

86:                                               ; preds = %82
  %87 = load i8, ptr %8, align 1, !tbaa !25
  %88 = sext i8 %87 to i32
  %89 = sub nsw i32 %88, 48
  %90 = sext i32 %89 to i64
  store i64 %90, ptr %7, align 8, !tbaa !15
  br label %92

91:                                               ; preds = %82, %70
  store i64 -1, ptr %3, align 8
  store i32 1, ptr %9, align 4
  br label %214

92:                                               ; preds = %86
  %93 = load ptr, ptr %4, align 8, !tbaa !19
  %94 = getelementptr inbounds nuw i8, ptr %93, i32 1
  store ptr %94, ptr %4, align 8, !tbaa !19
  %95 = load i8, ptr %93, align 1, !tbaa !25
  store i8 %95, ptr %8, align 1, !tbaa !25
  %96 = sext i8 %95 to i32
  %97 = icmp ne i32 58, %96
  br i1 %97, label %98, label %124

98:                                               ; preds = %92
  %99 = load i8, ptr %8, align 1, !tbaa !25
  %100 = sext i8 %99 to i32
  %101 = icmp sge i32 %100, 48
  br i1 %101, label %102, label %122

102:                                              ; preds = %98
  %103 = load i8, ptr %8, align 1, !tbaa !25
  %104 = sext i8 %103 to i32
  %105 = icmp sle i32 %104, 57
  br i1 %105, label %106, label %122

106:                                              ; preds = %102
  %107 = load i64, ptr %7, align 8, !tbaa !15
  %108 = mul nsw i64 %107, 10
  %109 = load i8, ptr %8, align 1, !tbaa !25
  %110 = sext i8 %109 to i32
  %111 = sub nsw i32 %110, 48
  %112 = sext i32 %111 to i64
  %113 = add nsw i64 %108, %112
  store i64 %113, ptr %7, align 8, !tbaa !15
  %114 = load ptr, ptr %4, align 8, !tbaa !19
  %115 = getelementptr inbounds nuw i8, ptr %114, i32 1
  store ptr %115, ptr %4, align 8, !tbaa !19
  %116 = load i8, ptr %114, align 1, !tbaa !25
  store i8 %116, ptr %8, align 1, !tbaa !25
  %117 = load i8, ptr %8, align 1, !tbaa !25
  %118 = sext i8 %117 to i32
  %119 = icmp ne i32 %118, 58
  br i1 %119, label %120, label %121

120:                                              ; preds = %106
  store i64 -1, ptr %3, align 8
  store i32 1, ptr %9, align 4
  br label %214

121:                                              ; preds = %106
  br label %123

122:                                              ; preds = %102, %98
  store i64 -1, ptr %3, align 8
  store i32 1, ptr %9, align 4
  br label %214

123:                                              ; preds = %121
  br label %124

124:                                              ; preds = %123, %92
  %125 = load i64, ptr %7, align 8, !tbaa !15
  %126 = icmp sge i64 %125, 60
  br i1 %126, label %127, label %128

127:                                              ; preds = %124
  store i64 -1, ptr %3, align 8
  store i32 1, ptr %9, align 4
  br label %214

128:                                              ; preds = %124
  call void @llvm.lifetime.start.p0(i64 8, ptr %10) #8
  %129 = load i64, ptr %6, align 8, !tbaa !15
  store i64 %129, ptr %10, align 8, !tbaa !15
  %130 = load i64, ptr %7, align 8, !tbaa !15
  %131 = load i32, ptr %5, align 4, !tbaa !4
  %132 = zext i32 %131 to i64
  %133 = mul nsw i64 %130, %132
  %134 = load i64, ptr %6, align 8, !tbaa !15
  %135 = add nsw i64 %134, %133
  store i64 %135, ptr %6, align 8, !tbaa !15
  %136 = load i64, ptr %6, align 8, !tbaa !15
  %137 = load i64, ptr %10, align 8, !tbaa !15
  %138 = icmp slt i64 %136, %137
  br i1 %138, label %139, label %140

139:                                              ; preds = %128
  store i64 -1, ptr %3, align 8
  store i32 1, ptr %9, align 4
  br label %141

140:                                              ; preds = %128
  store i32 0, ptr %9, align 4
  br label %141

141:                                              ; preds = %140, %139
  call void @llvm.lifetime.end.p0(i64 8, ptr %10) #8
  %142 = load i32, ptr %9, align 4
  switch i32 %142, label %214 [
    i32 0, label %143
  ]

143:                                              ; preds = %141
  %144 = load ptr, ptr %4, align 8, !tbaa !19
  %145 = getelementptr inbounds nuw i8, ptr %144, i32 1
  store ptr %145, ptr %4, align 8, !tbaa !19
  %146 = load i8, ptr %144, align 1, !tbaa !25
  store i8 %146, ptr %8, align 1, !tbaa !25
  %147 = load i8, ptr %8, align 1, !tbaa !25
  %148 = sext i8 %147 to i32
  %149 = icmp sge i32 %148, 48
  br i1 %149, label %150, label %159

150:                                              ; preds = %143
  %151 = load i8, ptr %8, align 1, !tbaa !25
  %152 = sext i8 %151 to i32
  %153 = icmp sle i32 %152, 57
  br i1 %153, label %154, label %159

154:                                              ; preds = %150
  %155 = load i8, ptr %8, align 1, !tbaa !25
  %156 = sext i8 %155 to i32
  %157 = sub nsw i32 %156, 48
  %158 = sext i32 %157 to i64
  store i64 %158, ptr %7, align 8, !tbaa !15
  br label %160

159:                                              ; preds = %150, %143
  store i64 -1, ptr %3, align 8
  store i32 1, ptr %9, align 4
  br label %214

160:                                              ; preds = %154
  %161 = load ptr, ptr %4, align 8, !tbaa !19
  %162 = getelementptr inbounds nuw i8, ptr %161, i32 1
  store ptr %162, ptr %4, align 8, !tbaa !19
  %163 = load i8, ptr %161, align 1, !tbaa !25
  store i8 %163, ptr %8, align 1, !tbaa !25
  %164 = sext i8 %163 to i32
  %165 = icmp ne i32 0, %164
  br i1 %165, label %166, label %187

166:                                              ; preds = %160
  %167 = load i8, ptr %8, align 1, !tbaa !25
  %168 = sext i8 %167 to i32
  %169 = icmp sge i32 %168, 48
  br i1 %169, label %170, label %185

170:                                              ; preds = %166
  %171 = load i8, ptr %8, align 1, !tbaa !25
  %172 = sext i8 %171 to i32
  %173 = icmp sle i32 %172, 57
  br i1 %173, label %174, label %185

174:                                              ; preds = %170
  %175 = load i64, ptr %7, align 8, !tbaa !15
  %176 = mul nsw i64 %175, 10
  %177 = load i8, ptr %8, align 1, !tbaa !25
  %178 = sext i8 %177 to i32
  %179 = sub nsw i32 %178, 48
  %180 = sext i32 %179 to i64
  %181 = add nsw i64 %176, %180
  store i64 %181, ptr %7, align 8, !tbaa !15
  %182 = load ptr, ptr %4, align 8, !tbaa !19
  %183 = getelementptr inbounds nuw i8, ptr %182, i32 1
  store ptr %183, ptr %4, align 8, !tbaa !19
  %184 = load i8, ptr %182, align 1, !tbaa !25
  store i8 %184, ptr %8, align 1, !tbaa !25
  br label %186

185:                                              ; preds = %170, %166
  store i64 -1, ptr %3, align 8
  store i32 1, ptr %9, align 4
  br label %214

186:                                              ; preds = %174
  br label %187

187:                                              ; preds = %186, %160
  %188 = load i8, ptr %8, align 1, !tbaa !25
  %189 = sext i8 %188 to i32
  %190 = icmp ne i32 %189, 0
  br i1 %190, label %191, label %192

191:                                              ; preds = %187
  store i64 -1, ptr %3, align 8
  store i32 1, ptr %9, align 4
  br label %214

192:                                              ; preds = %187
  %193 = load i64, ptr %7, align 8, !tbaa !15
  %194 = icmp sge i64 %193, 75
  br i1 %194, label %195, label %196

195:                                              ; preds = %192
  store i64 -1, ptr %3, align 8
  store i32 1, ptr %9, align 4
  br label %214

196:                                              ; preds = %192
  call void @llvm.lifetime.start.p0(i64 8, ptr %11) #8
  %197 = load i64, ptr %6, align 8, !tbaa !15
  store i64 %197, ptr %11, align 8, !tbaa !15
  %198 = load i64, ptr %7, align 8, !tbaa !15
  %199 = load i32, ptr %5, align 4, !tbaa !4
  %200 = udiv i32 %199, 75
  %201 = zext i32 %200 to i64
  %202 = mul nsw i64 %198, %201
  %203 = load i64, ptr %6, align 8, !tbaa !15
  %204 = add nsw i64 %203, %202
  store i64 %204, ptr %6, align 8, !tbaa !15
  %205 = load i64, ptr %6, align 8, !tbaa !15
  %206 = load i64, ptr %11, align 8, !tbaa !15
  %207 = icmp slt i64 %205, %206
  br i1 %207, label %208, label %209

208:                                              ; preds = %196
  store i64 -1, ptr %3, align 8
  store i32 1, ptr %9, align 4
  br label %210

209:                                              ; preds = %196
  store i32 0, ptr %9, align 4
  br label %210

210:                                              ; preds = %209, %208
  call void @llvm.lifetime.end.p0(i64 8, ptr %11) #8
  %211 = load i32, ptr %9, align 4
  switch i32 %211, label %214 [
    i32 0, label %212
  ]

212:                                              ; preds = %210
  %213 = load i64, ptr %6, align 8, !tbaa !15
  store i64 %213, ptr %3, align 8
  store i32 1, ptr %9, align 4
  br label %214

214:                                              ; preds = %212, %210, %195, %191, %185, %159, %141, %127, %122, %120, %91, %69, %60, %50, %31, %14
  call void @llvm.lifetime.end.p0(i64 1, ptr %8) #8
  call void @llvm.lifetime.end.p0(i64 8, ptr %7) #8
  call void @llvm.lifetime.end.p0(i64 8, ptr %6) #8
  %215 = load i64, ptr %3, align 8
  ret i64 %215
}