; Function Attrs: nofree norecurse nosync nounwind sspstrong memory(argmem: read) uwtable
define internal fastcc i64 @local__parse_msf_(ptr noundef nonnull readonly captures(none) %0, i32 noundef %1) unnamed_addr #9 {
  %3 = icmp eq i32 %1, 0
  br i1 %3, label %.loopexit, label %4

4:                                                ; preds = %2
  %5 = load i8, ptr %0, align 1, !tbaa !15
  %6 = add i8 %5, -48
  %or.cond = icmp ult i8 %6, 10
  br i1 %or.cond, label %7, label %.loopexit

7:                                                ; preds = %4
  %8 = getelementptr inbounds nuw i8, ptr %0, i64 1
  %9 = and i8 %5, 15
  %10 = zext nneg i8 %9 to i64
  %11 = getelementptr inbounds nuw i8, ptr %0, i64 2
  %12 = load i8, ptr %8, align 1, !tbaa !15
  %.not105 = icmp eq i8 %12, 58
  br i1 %.not105, label %._crit_edge, label %.lr.ph

.lr.ph:                                           ; preds = %7, %17
  %13 = phi i8 [ %22, %17 ], [ %12, %7 ]
  %14 = phi ptr [ %21, %17 ], [ %11, %7 ]
  %.077106 = phi i64 [ %20, %17 ], [ %10, %7 ]
  %15 = add i8 %13, -48
  %or.cond6 = icmp ugt i8 %15, 9
  %16 = icmp sgt i64 %.077106, 922337203685477579
  %or.cond95 = select i1 %or.cond6, i1 true, i1 %16
  br i1 %or.cond95, label %.loopexit, label %17

17:                                               ; preds = %.lr.ph
  %18 = mul nsw i64 %.077106, 10
  %19 = zext nneg i8 %15 to i64
  %20 = add nsw i64 %18, %19
  %21 = getelementptr inbounds nuw i8, ptr %14, i64 1
  %22 = load i8, ptr %14, align 1, !tbaa !15
  %.not = icmp eq i8 %22, 58
  br i1 %.not, label %._crit_edge, label %.lr.ph, !llvm.loop !35

._crit_edge:                                      ; preds = %17, %7
  %.077.lcssa = phi i64 [ %10, %7 ], [ %20, %17 ]
  %.072.lcssa = phi ptr [ %8, %7 ], [ %14, %17 ]
  %.lcssa = phi ptr [ %11, %7 ], [ %21, %17 ]
  %23 = mul i32 %1, 60
  %24 = zext i32 %23 to i64
  %25 = udiv i64 9223372036854775807, %24
  %.not87 = icmp slt i64 %.077.lcssa, %25
  br i1 %.not87, label %26, label %.loopexit

26:                                               ; preds = %._crit_edge
  %27 = mul nsw i64 %.077.lcssa, 60
  %28 = zext i32 %1 to i64
  %29 = mul nsw i64 %27, %28
  %30 = load i8, ptr %.lcssa, align 1, !tbaa !15
  %31 = add i8 %30, -48
  %or.cond9 = icmp ult i8 %31, 10
  br i1 %or.cond9, label %32, label %.loopexit

32:                                               ; preds = %26
  %33 = getelementptr inbounds nuw i8, ptr %.072.lcssa, i64 2
  %34 = and i8 %30, 15
  %35 = zext nneg i8 %34 to i64
  %36 = getelementptr inbounds nuw i8, ptr %.072.lcssa, i64 3
  %37 = load i8, ptr %33, align 1, !tbaa !15
  %.not88 = icmp eq i8 %37, 58
  br i1 %.not88, label %.thread, label %38

38:                                               ; preds = %32
  %39 = add i8 %37, -48
  %or.cond12 = icmp ult i8 %39, 10
  br i1 %or.cond12, label %40, label %.loopexit

40:                                               ; preds = %38
  %41 = mul nuw nsw i64 %35, 10
  %42 = zext nneg i8 %39 to i64
  %43 = add nuw nsw i64 %41, %42
  %44 = getelementptr inbounds nuw i8, ptr %.072.lcssa, i64 4
  %45 = load i8, ptr %36, align 1, !tbaa !15
  %.not89 = icmp ne i8 %45, 58
  %46 = icmp samesign ugt i64 %43, 59
  %or.cond101 = select i1 %.not89, i1 true, i1 %46
  br i1 %or.cond101, label %.loopexit, label %.thread

.thread:                                          ; preds = %40, %32
  %.173100 = phi ptr [ %36, %32 ], [ %44, %40 ]
  %.17899 = phi i64 [ %35, %32 ], [ %43, %40 ]
  %47 = add i64 %.17899, %27
  %48 = mul i64 %47, %28
  %.not90 = icmp slt i64 %48, %29
  br i1 %.not90, label %.loopexit, label %49

49:                                               ; preds = %.thread
  %50 = load i8, ptr %.173100, align 1, !tbaa !15
  %51 = add i8 %50, -48
  %or.cond15 = icmp ult i8 %51, 10
  br i1 %or.cond15, label %52, label %.loopexit

52:                                               ; preds = %49
  %53 = getelementptr inbounds nuw i8, ptr %.173100, i64 1
  %54 = and i8 %50, 15
  %55 = zext nneg i8 %54 to i64
  %56 = getelementptr inbounds nuw i8, ptr %.173100, i64 2
  %57 = load i8, ptr %53, align 1, !tbaa !15
  %.not91 = icmp eq i8 %57, 0
  br i1 %.not91, label %66, label %58

58:                                               ; preds = %52
  %59 = add i8 %57, -48
  %or.cond18 = icmp ult i8 %59, 10
  br i1 %or.cond18, label %60, label %.loopexit

60:                                               ; preds = %58
  %61 = mul nuw nsw i64 %55, 10
  %62 = zext nneg i8 %59 to i64
  %63 = add nuw nsw i64 %61, %62
  %64 = load i8, ptr %56, align 1, !tbaa !15
  %65 = icmp ne i8 %64, 0
  br label %66

66:                                               ; preds = %60, %52
  %.279 = phi i64 [ %63, %60 ], [ %55, %52 ]
  %.076 = phi i1 [ %65, %60 ], [ false, %52 ]
  %67 = icmp samesign ugt i64 %.279, 74
  %or.cond96 = select i1 %.076, i1 true, i1 %67
  br i1 %or.cond96, label %.loopexit, label %68

68:                                               ; preds = %66
  %69 = udiv i32 %1, 75
  %70 = zext nneg i32 %69 to i64
  %71 = mul nuw nsw i64 %.279, %70
  %72 = add nsw i64 %71, %48
  br label %.loopexit

.loopexit:                                        ; preds = %.lr.ph, %68, %66, %58, %49, %38, %40, %26, %._crit_edge, %4, %2, %.thread
  %.0 = phi i64 [ -1, %.thread ], [ -1, %2 ], [ -1, %4 ], [ -1, %._crit_edge ], [ -1, %26 ], [ -1, %40 ], [ -1, %38 ], [ -1, %49 ], [ -1, %58 ], [ -1, %66 ], [ %72, %68 ], [ -1, %.lr.ph ]
  ret i64 %.0
}